; Function Attrs: null_pointer_is_valid sspstrong uwtable
define internal fastcc void @dissect_amqp_0_9_method_tunnel_request(ptr noundef %0, ptr noundef %1, ptr noundef %2) unnamed_addr #0 {
  %4 = load i32, ptr @hf_amqp_method_tunnel_request_meta_data, align 4
  %5 = tail call i32 @tvb_get_ntohl(ptr noundef %0, i32 noundef 11)
  %6 = tail call ptr @proto_tree_add_item(ptr noundef %2, i32 noundef %4, ptr noundef %0, i32 noundef 15, i32 noundef %5, i32 noundef 0)
  %7 = tail call i32 @tvb_get_ntohl(ptr noundef %0, i32 noundef 11)
  tail call fastcc void @dissect_amqp_0_9_field_table(ptr noundef %0, ptr noundef %1, i32 noundef 15, i32 noundef %7, ptr noundef %6)
  %8 = tail call i32 @tvb_get_ntohl(ptr noundef %0, i32 noundef 11)
  ret void
}